Certificate:
    Data:
        Version: 3 (0x2)
        Serial Number: 1 (0x1)
        Signature Algorithm: sha256WithRSAEncryption
        Issuer: C=CH, ST=Vaud, L=Lausanne, O=ACME, OU=ACME CA Team, CN=acme-ca.com
        Validity
            Not Before: Jul 20 14:54:38 2024 GMT
            Not After : Jul 20 14:54:38 2025 GMT
        Subject: C=CH, ST=Vaud, O=ACME, OU=EPFL C4DT, CN=localhost
        Subject Public Key Info:
            Public Key Algorithm: rsaEncryption
                Public-Key: (2048 bit)
                Modulus:
                    00:d4:17:aa:72:2e:83:55:da:66:ae:6f:76:5f:c9:
                    c5:3a:27:7c:7d:5d:ab:1c:fd:4d:cf:b1:15:77:c5:
                    47:ac:81:55:37:d4:07:3c:d3:65:e6:3b:75:59:5f:
                    f7:4e:78:51:b7:82:99:09:6a:bb:13:fc:40:e0:68:
                    82:1a:c5:96:5b:c2:ff:da:1a:b3:f4:43:90:35:69:
                    a8:ad:8a:5d:b8:06:ec:29:e3:9f:66:29:13:78:21:
                    a7:00:4c:44:d7:13:b6:bb:0b:24:4e:61:45:e7:c5:
                    04:db:2b:42:47:c9:c5:4f:8e:eb:77:42:e3:51:57:
                    94:71:28:9d:f2:b1:bd:ec:d3:d6:37:74:f9:e5:1e:
                    2c:d4:bf:1b:db:a0:f1:a3:27:dd:6b:b2:e8:48:2a:
                    4a:61:fb:bc:c0:b7:0c:6b:50:57:9a:04:0f:9e:41:
                    a2:28:2f:3f:ee:56:05:cf:20:c4:d6:74:b2:26:ff:
                    80:67:e6:fc:f0:57:c9:16:31:8c:80:b8:85:2d:6f:
                    4e:29:4c:28:78:95:4c:4a:9c:94:e7:e4:95:1f:b8:
                    cd:bf:8f:ab:01:a3:c7:01:f9:32:7b:23:6c:cc:8c:
                    2c:ba:0c:54:1e:6e:bb:71:76:43:6c:0a:80:56:e9:
                    28:73:6a:a5:53:c6:1e:3d:dc:92:2c:2c:a9:82:58:
                    f6:f5
                Exponent: 65537 (0x10001)
        X509v3 extensions:
            X509v3 Subject Key Identifier: 
                20:CC:62:92:2F:12:76:80:17:3C:0F:7A:83:C7:F3:F3:40:42:46:B5
            X509v3 Authority Key Identifier: 
                6E:9F:4B:FF:42:BA:0C:13:14:58:4A:A1:F2:A0:B9:DA:79:26:29:EE
            X509v3 Basic Constraints: critical
                CA:TRUE
    Signature Algorithm: sha256WithRSAEncryption
    Signature Value:
        80:bd:5e:54:e7:89:c6:10:49:84:42:88:a6:cf:9c:5d:43:bb:
        9f:25:f5:fc:1c:26:6d:98:73:df:de:2f:cd:04:ad:8d:1d:77:
        27:0e:79:66:35:2e:cf:75:85:65:bf:51:d5:7f:0e:52:a9:e8:
        fb:fd:9b:56:22:e4:98:0c:ef:c8:e8:23:6f:2a:fc:86:6e:6a:
        36:75:27:de:86:19:57:1a:49:ac:47:a2:13:09:5e:44:a1:46:
        f5:84:fa:92:81:41:41:7c:fb:d2:23:8b:80:0e:01:66:4f:cf:
        8b:26:7d:43:7d:d8:ac:65:0a:48:b0:10:b5:3f:e1:30:6f:b9:
        cf:b9:f6:2f:97:dc:13:fe:76:22:47:1d:47:be:16:0b:13:4c:
        96:ed:ea:0f:b0:cc:71:89:51:06:72:04:1d:7e:08:fb:57:6a:
        6e:a5:b6:5f:2e:43:35:01:c2:72:5b:a9:19:dd:25:c5:cb:d7:
        16:b1:73:b1:f7:1b:a3:53:db:84:3e:1c:d4:84:69:6c:a2:49:
        22:b7:19:68:9d:ca:2e:ce:1a:27:6d:b1:dd:5b:d0:e2:60:63:
        12:88:6a:de:65:a5:1c:aa:63:ed:c3:75:2c:3b:b5:f3:cc:d5:
        53:ca:e0:3c:9f:33:fd:2e:01:8c:a5:9b:4f:77:24:5f:1f:c8:
        21:7f:a6:aa
-----BEGIN CERTIFICATE-----
MIIDjDCCAnSgAwIBAgIBATANBgkqhkiG9w0BAQsFADBrMQswCQYDVQQGEwJDSDEN
MAsGA1UECAwEVmF1ZDERMA8GA1UEBwwITGF1c2FubmUxDTALBgNVBAoMBEFDTUUx
FTATBgNVBAsMDEFDTUUgQ0EgVGVhbTEUMBIGA1UEAwwLYWNtZS1jYS5jb20wHhcN
MjQwNzIwMTQ1NDM4WhcNMjUwNzIwMTQ1NDM4WjBTMQswCQYDVQQGEwJDSDENMAsG
A1UECAwEVmF1ZDENMAsGA1UECgwEQUNNRTESMBAGA1UECwwJRVBGTCBDNERUMRIw
EAYDVQQDDAlsb2NhbGhvc3QwggEiMA0GCSqGSIb3DQEBAQUAA4IBDwAwggEKAoIB
AQDUF6pyLoNV2maub3ZfycU6J3x9Xasc/U3PsRV3xUesgVU31Ac802XmO3VZX/dO
eFG3gpkJarsT/EDgaIIaxZZbwv/aGrP0Q5A1aaitil24Buwp459mKRN4IacATETX
E7a7CyROYUXnxQTbK0JHycVPjut3QuNRV5RxKJ3ysb3s09Y3dPnlHizUvxvboPGj
J91rsuhIKkph+7zAtwxrUFeaBA+eQaIoLz/uVgXPIMTWdLIm/4Bn5vzwV8kWMYyA
uIUtb04pTCh4lUxKnJTn5JUfuM2/j6sBo8cB+TJ7I2zMjCy6DFQebrtxdkNsCoBW
6ShzaqVTxh493JIsLKmCWPb1AgMBAAGjUzBRMB0GA1UdDgQWBBQgzGKSLxJ2gBc8
D3qDx/PzQEJGtTAfBgNVHSMEGDAWgBRun0v/QroMExRYSqHyoLnaeSYp7jAPBgNV
HRMBAf8EBTADAQH/MA0GCSqGSIb3DQEBCwUAA4IBAQCAvV5U54nGEEmEQoimz5xd
Q7ufJfX8HCZtmHPf3i/NBK2NHXcnDnlmNS7PdYVlv1HVfw5Sqej7/ZtWIuSYDO/I
6CNvKvyGbmo2dSfehhlXGkmsR6ITCV5EoUb1hPqSgUFBfPvSI4uADgFmT8+LJn1D
fdisZQpIsBC1P+Ewb7nPufYvl9wT/nYiRx1HvhYLE0yW7eoPsMxxiVEGcgQdfgj7
V2pupbZfLkM1AcJyW6kZ3SXFy9cWsXOx9xujU9uEPhzUhGlsokkitxloncouzhon
bbHdW9DiYGMSiGreZaUcqmPtw3UsO7XzzNVTyuA8nzP9LgGMpZtPdyRfH8ghf6aq
-----END CERTIFICATE-----
