Certificate:
    Data:
        Version: 3 (0x2)
        Serial Number: 2 (0x2)
        Signature Algorithm: sha256WithRSAEncryption
        Issuer: C=CH, ST=Vaud, L=Lausanne, O=ACME, OU=ACME CA Team, CN=acme-ca.com
        Validity
            Not Before: Jul 20 15:26:06 2024 GMT
            Not After : Jul 20 15:26:06 2025 GMT
        Subject: C=CH, ST=Vaud, O=ACME, CN=tls-test.com
        Subject Public Key Info:
            Public Key Algorithm: rsaEncryption
                Public-Key: (2048 bit)
                Modulus:
                    00:d4:17:aa:72:2e:83:55:da:66:ae:6f:76:5f:c9:
                    c5:3a:27:7c:7d:5d:ab:1c:fd:4d:cf:b1:15:77:c5:
                    47:ac:81:55:37:d4:07:3c:d3:65:e6:3b:75:59:5f:
                    f7:4e:78:51:b7:82:99:09:6a:bb:13:fc:40:e0:68:
                    82:1a:c5:96:5b:c2:ff:da:1a:b3:f4:43:90:35:69:
                    a8:ad:8a:5d:b8:06:ec:29:e3:9f:66:29:13:78:21:
                    a7:00:4c:44:d7:13:b6:bb:0b:24:4e:61:45:e7:c5:
                    04:db:2b:42:47:c9:c5:4f:8e:eb:77:42:e3:51:57:
                    94:71:28:9d:f2:b1:bd:ec:d3:d6:37:74:f9:e5:1e:
                    2c:d4:bf:1b:db:a0:f1:a3:27:dd:6b:b2:e8:48:2a:
                    4a:61:fb:bc:c0:b7:0c:6b:50:57:9a:04:0f:9e:41:
                    a2:28:2f:3f:ee:56:05:cf:20:c4:d6:74:b2:26:ff:
                    80:67:e6:fc:f0:57:c9:16:31:8c:80:b8:85:2d:6f:
                    4e:29:4c:28:78:95:4c:4a:9c:94:e7:e4:95:1f:b8:
                    cd:bf:8f:ab:01:a3:c7:01:f9:32:7b:23:6c:cc:8c:
                    2c:ba:0c:54:1e:6e:bb:71:76:43:6c:0a:80:56:e9:
                    28:73:6a:a5:53:c6:1e:3d:dc:92:2c:2c:a9:82:58:
                    f6:f5
                Exponent: 65537 (0x10001)
        X509v3 extensions:
            X509v3 Subject Key Identifier: 
                20:CC:62:92:2F:12:76:80:17:3C:0F:7A:83:C7:F3:F3:40:42:46:B5
            X509v3 Authority Key Identifier: 
                6E:9F:4B:FF:42:BA:0C:13:14:58:4A:A1:F2:A0:B9:DA:79:26:29:EE
            X509v3 Basic Constraints: critical
                CA:TRUE
    Signature Algorithm: sha256WithRSAEncryption
    Signature Value:
        92:6c:19:0b:be:9a:ce:4f:7f:f6:57:75:18:97:65:7b:dc:5c:
        e0:84:b1:8e:22:43:7d:40:5c:b0:63:0b:61:d7:63:20:26:9e:
        59:a4:54:2a:a2:5b:c9:de:20:da:de:b3:78:a6:49:b4:29:d9:
        0c:f4:4f:df:a8:1a:5f:9f:1c:69:b2:5c:66:36:3a:97:db:61:
        49:e8:2b:01:0b:ee:a5:3d:f9:4e:c7:e3:f5:94:a5:b8:82:d9:
        25:fe:f5:f8:13:7c:f3:b6:5e:b8:c2:67:3c:a3:96:1c:07:34:
        dd:04:c5:43:ae:cc:b7:5a:42:45:d2:85:b6:f8:8d:47:89:f5:
        dc:1f:2a:c3:82:0b:46:12:35:ab:83:3d:61:7f:30:f1:bc:b8:
        b2:17:73:d5:fc:99:5b:0c:96:97:55:5f:eb:ca:da:42:73:cc:
        ec:03:96:d1:c2:c9:e1:50:81:78:7b:ba:ba:85:67:8d:ba:ce:
        71:f4:33:cb:26:6c:65:28:1b:25:3c:89:f2:fc:ca:15:f4:ec:
        8c:8e:98:79:81:a6:26:2b:cd:69:c9:73:1a:df:ec:72:02:cc:
        3d:c2:88:75:7a:95:73:5f:94:39:91:db:1f:9e:9d:d6:c8:2f:
        cb:f9:79:af:3e:b2:e0:e0:b1:60:cf:c5:7f:f0:3d:ee:24:c8:
        8c:4d:ed:84
-----BEGIN CERTIFICATE-----
MIIDezCCAmOgAwIBAgIBAjANBgkqhkiG9w0BAQsFADBrMQswCQYDVQQGEwJDSDEN
MAsGA1UECAwEVmF1ZDERMA8GA1UEBwwITGF1c2FubmUxDTALBgNVBAoMBEFDTUUx
FTATBgNVBAsMDEFDTUUgQ0EgVGVhbTEUMBIGA1UEAwwLYWNtZS1jYS5jb20wHhcN
MjQwNzIwMTUyNjA2WhcNMjUwNzIwMTUyNjA2WjBCMQswCQYDVQQGEwJDSDENMAsG
A1UECAwEVmF1ZDENMAsGA1UECgwEQUNNRTEVMBMGA1UEAwwMdGxzLXRlc3QuY29t
MIIBIjANBgkqhkiG9w0BAQEFAAOCAQ8AMIIBCgKCAQEA1Beqci6DVdpmrm92X8nF
Oid8fV2rHP1Nz7EVd8VHrIFVN9QHPNNl5jt1WV/3TnhRt4KZCWq7E/xA4GiCGsWW
W8L/2hqz9EOQNWmorYpduAbsKeOfZikTeCGnAExE1xO2uwskTmFF58UE2ytCR8nF
T47rd0LjUVeUcSid8rG97NPWN3T55R4s1L8b26Dxoyfda7LoSCpKYfu8wLcMa1BX
mgQPnkGiKC8/7lYFzyDE1nSyJv+AZ+b88FfJFjGMgLiFLW9OKUwoeJVMSpyU5+SV
H7jNv4+rAaPHAfkyeyNszIwsugxUHm67cXZDbAqAVukoc2qlU8YePdySLCypglj2
9QIDAQABo1MwUTAdBgNVHQ4EFgQUIMxiki8SdoAXPA96g8fz80BCRrUwHwYDVR0j
BBgwFoAUbp9L/0K6DBMUWEqh8qC52nkmKe4wDwYDVR0TAQH/BAUwAwEB/zANBgkq
hkiG9w0BAQsFAAOCAQEAkmwZC76azk9/9ld1GJdle9xc4ISxjiJDfUBcsGMLYddj
ICaeWaRUKqJbyd4g2t6zeKZJtCnZDPRP36gaX58cabJcZjY6l9thSegrAQvupT35
Tsfj9ZSluILZJf71+BN887ZeuMJnPKOWHAc03QTFQ67Mt1pCRdKFtviNR4n13B8q
w4ILRhI1q4M9YX8w8by4shdz1fyZWwyWl1Vf68raQnPM7AOW0cLJ4VCBeHu6uoVn
jbrOcfQzyyZsZSgbJTyJ8vzKFfTsjI6YeYGmJivNaclzGt/scgLMPcKIdXqVc1+U
OZHbH56d1sgvy/l5rz6y4OCxYM/Ff/A97iTIjE3thA==
-----END CERTIFICATE-----
